; Function Attrs: mustprogress uwtable
define noundef i32 @_ZNK6casadi16GetNonzerosParam10sp_reverseEPPyS2_PxS1_(ptr noundef nonnull align 8 dereferenceable(64) %0, ptr nocapture noundef readonly %1, ptr nocapture noundef readonly %2, ptr nocapture readnone %3, ptr nocapture readnone %4) unnamed_addr #3 align 2 {
  %6 = load ptr, ptr %1, align 8
  %7 = load ptr, ptr %2, align 8
  %8 = load ptr, ptr %0, align 8
  %9 = getelementptr inbounds i8, ptr %8, i64 352
  %10 = load ptr, ptr %9, align 8
  %11 = tail call noundef nonnull align 8 dereferenceable(8) ptr %10(ptr noundef nonnull align 8 dereferenceable(64) %0, i64 noundef 0)
  %12 = tail call noundef i64 @_ZNK6casadi8Sparsity3nnzEv(ptr noundef nonnull align 8 dereferenceable(8) %11)
  %13 = tail call noundef i64 @_ZN6casadi7bvec_orEPKyx(ptr noundef %7, i64 noundef %12)
  %14 = load ptr, ptr %2, align 8
  %15 = load ptr, ptr %0, align 8
  %16 = getelementptr inbounds i8, ptr %15, i64 352
  %17 = load ptr, ptr %16, align 8
  %18 = tail call noundef nonnull align 8 dereferenceable(8) ptr %17(ptr noundef nonnull align 8 dereferenceable(64) %0, i64 noundef 0)
  %19 = tail call noundef i64 @_ZNK6casadi8Sparsity3nnzEv(ptr noundef nonnull align 8 dereferenceable(8) %18)
  %.not5.i.i.i = icmp eq i64 %19, 0
  br i1 %.not5.i.i.i, label %_ZSt4fillIPyyEvT_S1_RKT0_.exit, label %.lr.ph.i.i.i.preheader

.lr.ph.i.i.i.preheader:                           ; preds = %5
  %20 = shl i64 %19, 3
  tail call void @llvm.memset.p0.i64(ptr align 8 %14, i8 0, i64 %20, i1 false)
  br label %_ZSt4fillIPyyEvT_S1_RKT0_.exit

_ZSt4fillIPyyEvT_S1_RKT0_.exit:                   ; preds = %.lr.ph.i.i.i.preheader, %5
  %21 = getelementptr inbounds i8, ptr %0, i64 32
  %22 = getelementptr inbounds i8, ptr %0, i64 40
  %23 = load ptr, ptr %22, align 8
  %24 = load ptr, ptr %21, align 8
  %.not.i.i.i9.not10 = icmp eq ptr %23, %24
  br i1 %.not.i.i.i9.not10, label %._crit_edge, label %_ZNK6casadi6MXNode3depEx.exit

._crit_edge:                                      ; preds = %29, %_ZSt4fillIPyyEvT_S1_RKT0_.exit
  tail call void (ptr, ...) @_ZSt24__throw_out_of_range_fmtPKcz(ptr noundef nonnull @.str.65, i64 noundef 0, i64 noundef 0) #20
  unreachable

_ZNK6casadi6MXNode3depEx.exit:                    ; preds = %_ZSt4fillIPyyEvT_S1_RKT0_.exit, %29
  %25 = phi ptr [ %35, %29 ], [ %24, %_ZSt4fillIPyyEvT_S1_RKT0_.exit ]
  %.012 = phi i64 [ %33, %29 ], [ 0, %_ZSt4fillIPyyEvT_S1_RKT0_.exit ]
  %.0811 = phi ptr [ %30, %29 ], [ %6, %_ZSt4fillIPyyEvT_S1_RKT0_.exit ]
  %26 = tail call noundef nonnull align 8 dereferenceable(8) ptr @_ZNK6casadi2MX8sparsityEv(ptr noundef nonnull align 8 dereferenceable(8) %25)
  %27 = tail call noundef i64 @_ZNK6casadi8Sparsity3nnzEv(ptr noundef nonnull align 8 dereferenceable(8) %26)
  %28 = icmp slt i64 %.012, %27
  br i1 %28, label %29, label %36

29:                                               ; preds = %_ZNK6casadi6MXNode3depEx.exit
  %30 = getelementptr inbounds i8, ptr %.0811, i64 8
  %31 = load i64, ptr %.0811, align 8
  %32 = or i64 %31, %13
  store i64 %32, ptr %.0811, align 8
  %33 = add nuw nsw i64 %.012, 1
  %34 = load ptr, ptr %22, align 8
  %35 = load ptr, ptr %21, align 8
  %.not.i.i.i9.not = icmp eq ptr %34, %35
  br i1 %.not.i.i.i9.not, label %._crit_edge, label %_ZNK6casadi6MXNode3depEx.exit, !llvm.loop !29

36:                                               ; preds = %_ZNK6casadi6MXNode3depEx.exit
  ret i32 0
}